(lp0
S'airhead'
p1
aS'animal'
p2
aS'anorak'
p3
aS'anus licker'
p4
aS'ape'
p5
aS'apefucker'
p6
aS'arse'
p7
aS'arsebreath'
p8
aS'arseface'
p9
aS'arsehole'
p10
aS'arse-licker'
p11
aS'ass'
p12
aS'assaholic'
p13
aS'ass bag'
p14
aS'ass bitch'
p15
aS'ass clown'
p16
aS'asscunt'
p17
aS'assface'
p18
aS'assfag'
p19
aS'assfucker'
p20
aS'asshat'
p21
aS'asshole'
p22
aS'asshole licker'
p23
aS'ass-kisser'
p24
aS'ass licker'
p25
aS'assmonkey'
p26
aS'assmouth'
p27
aS'assmunch'
p28
aS'ass-nugget'
p29
aS'ass sucker'
p30
aS'asstard'
p31
aS'asswagon'
p32
aS'assweed'
p33
aS'asswipe'
p34
aS'aunt fucker'
p35
aS'baby'
p36
aS'backstabber'
p37
aS'backwoodsman'
p38
aS'badass'
p39
aS'Baddie'
p40
aS'badgerfucker'
p41
aS'bag of dicks'
p42
aS'bag whore'
p43
aS'ballkicker'
p44
aS'ball licker'
p45
aS'ballsack'
p46
aS'bandit'
p47
aS'bangsat'
p48
aS'barbarian'
p49
aS'Barbie-fucker'
p50
aS'barnacle head'
p51
aS'bastard'
p52
aS'bawtboy'
p53
aS'bean head'
p54
aS'beast'
p55
aS'beaver'
p56
aS'bedwetter'
p57
aS'beetlehead'
p58
aS'beggar'
p59
aS'beginner'
p60
aS'beldame'
p61
aS'bell-end'
p62
aS'berk'
p63
aS'bespawler'
p64
aS'beta'
p65
aS'beta cuck'
p66
aS'biatch'
p67
aS'bimbo'
p68
aS'birdbrain'
p69
aS'birdfucker'
p70
aS'bitch'
p71
aS'bitch-ass'
p72
aS'bitch boy'
p73
aS'bitchcunt'
p74
aS'bitchface'
p75
aS'bitchfucker'
p76
aS'bitchtits'
p77
aS'bitchwad'
p78
aS'bitchwhore'
p79
aS'bitchzilla'
p80
aS'biznatch'
p81
aS'blabbermouth'
p82
aS'blackguard'
p83
aS'blaggard'
p84
aS'blockhead'
p85
aS'blubber gut'
p86
aS'bluntie'
p87
aS'bogeyman'
p88
aS'bonehead'
p89
aS'boob'
p90
aS'booby'
p91
aS'boomer'
p92
aS'bootlicker'
p93
aS'boozer'
p94
aS'bot'
p95
aS'botfucker'
p96
aS'boyfucker'
p97
aS'bozo'
p98
aS'brainlet'
p99
aS'Brandon'
p100
aS'brat'
p101
aS'brickfucker'
p102
aS'brickhead'
p103
aS'brotherfucker'
p104
aS'buffoon'
p105
aS'bugfucker'
p106
aS'bugger'
p107
aS'bullfuck'
p108
aS'bully'
p109
aS'bum'
p110
aS'bumbo'
p111
aS'bum chum'
p112
aS'bum-fucker'
p113
aS'bunghole'
p114
aS'burden'
p115
aS'buttass'
p116
aS'buttbreath'
p117
aS'buttface'
p118
aS'buttfucker'
p119
aS'butthead'
p120
aS'butthole'
p121
aS'buttkisser'
p122
aS'buttknocker'
p123
aS'butt knuckler'
p124
aS'buttlicker'
p125
aS'butt lord'
p126
aS'buttmunch'
p127
aS'butt nugget'
p128
aS'butt sniffer'
p129
aS'butt tickler'
p130
aS'buttwad'
p131
aS'cactus fucker'
p132
aS'cad'
p133
aS'camelfucker'
p134
aS'carny'
p135
aS'catfucker'
p136
aS'caveman'
p137
aS'chatty stranger'
p138
aS'chauvinist'
p139
aS'chav'
p140
aS'cheater'
p141
aS'chicken'
p142
aS'chickenfucker'
p143
aS'chicken shit'
p144
aS'childfucker'
p145
aS'choad'
p146
aS'chomo'
p147
aS'chump'
p148
aS'churl'
p149
aS'clitbag'
p150
aS'clithead'
p151
aS'clod'
p152
aS'clown'
p153
aS'cock'
p154
aS'cockalorum'
p155
aS'cockboy'
p156
aS'cockburger'
p157
aS'cockfucker'
p158
aS'cockhead'
p159
aS'cockholster'
p160
aS'cockmaster'
p161
aS'cockroach'
p162
aS'cocksucker'
p163
aS'cocktease'
p164
aS'cockwaddle'
p165
aS'cockweasel'
p166
aS'cockwomble'
p167
aS'coffee slurper'
p168
aS'commie'
p169
aS'con man'
p170
aS'con merchant'
p171
aS'coochie-ass'
p172
aS'coomer'
p173
aS'cootie face'
p174
aS'corpsefucker'
p175
aS'couch potato'
p176
aS'cougar'
p177
aS'country bumpkin'
p178
aS'cousinfucker'
p179
aS'cousin humper'
p180
aS'cow'
p181
aS'coward'
p182
aS'cowfucker'
p183
aS'crackhead'
p184
aS'crack whore'
p185
aS'crap eater'
p186
aS'craphole'
p187
aS'creep'
p188
aS'creeper'
p189
aS'cretin'
p190
aS'criminal'
p191
aS'crook'
p192
aS'crud'
p193
aS'crud head'
p194
aS'crybaby'
p195
aS'cuck'
p196
aS'cuckold'
p197
aS'culprit'
p198
aS'cumbucket'
p199
aS'cum burgler'
p200
aS'cum dumpster'
p201
aS'cumfucker'
p202
aS'cum guzzler'
p203
aS'cum licker'
p204
aS'cumslut'
p205
aS'cumstain'
p206
aS'cunt'
p207
aS'cuntass'
p208
aS'cuntbiscuit'
p209
aS'cuntbitch'
p210
aS'cuntbreath'
p211
aS'cuntface'
p212
aS'cunt fart'
p213
aS'cuntfucker'
p214
aS'cuntlicker'
p215
aS'cunt muncher'
p216
aS'cunt rag'
p217
aS'cuntshit'
p218
aS'cuntsucker'
p219
aS'cuntzilla'
p220
aS'cuss'
p221
aS'daddyfucker'
p222
aS'dandiprat'
p223
aS'daughterfucker'
p224
aS'deadhead'
p225
aS'degenerate'
p226
aS'delinquent'
p227
aS'demon'
p228
aS'der-brain'
p229
aS'desperado'
p230
aS'devil'
p231
aS'dick'
p232
aS'dickass'
p233
aS'dickbag'
p234
aS'dickbreath'
p235
aS'dickcheese'
p236
aS'dickface'
p237
aS'dick fart'
p238
aS'dickfucker'
p239
aS'dickhead'
p240
aS'dickhole'
p241
aS'dickless'
p242
aS'dicklicker'
p243
aS'dick man'
p244
aS'dick mouth'
p245
aS'dick sniffer'
p246
aS'dicksplash'
p247
aS'dick-sucker'
p248
aS'dicktard'
p249
aS'dicktator'
p250
aS'dicktits'
p251
aS'dickwad'
p252
aS'dickweasel'
p253
aS'dildo'
p254
aS'dillhole'
p255
aS'dimmadumbass'
p256
aS'dimwit'
p257
aS'ding-head'
p258
aS'dingleberry'
p259
aS'dingus'
p260
aS'dinosaur'
p261
aS'dipfuck'
p262
aS'dipshit'
p263
aS'dirtbag'
p264
aS'dirthead'
p265
aS'dirt muncher'
p266
aS'dirtwad'
p267
aS'disgrace'
p268
aS'dodo'
p269
aS'dog'
p270
aS'dogbolt'
p271
aS'dogbreath'
p272
aS'dogfucker'
p273
aS'dolt'
p274
aS'donkey'
p275
aS'donkey dick'
p276
aS'donkeyfucker'
p277
aS'doofus'
p278
aS'dope'
p279
aS'dotterel'
p280
aS'douche'
p281
aS'douche bag'
p282
aS'doucheburger'
p283
aS'douche canoe'
p284
aS'douchefag'
p285
aS'douchelord'
p286
aS'douche nark'
p287
aS'douche nozzle'
p288
aS'douchewad'
p289
aS'douchewagon'
p290
aS'dracula'
p291
aS'dreamer'
p292
aS'drug addict'
p293
aS'drug dealer'
p294
aS'drunkard'
p295
aS'duckfucker'
p296
aS'dumbarse'
p297
aS'dumbass'
p298
aS'dumbbell'
p299
aS'dumb blonde'
p300
aS'dumb fucker'
p301
aS'dumbo'
p302
aS'dumb shit'
p303
aS'dum dum'
p304
aS'dummy'
p305
aS'dunce'
p306
aS'duncebucket'
p307
aS'dweeb'
p308
aS'dweebling'
p309
aS'earthworm'
p310
aS'edgelord'
p311
aS'egghead'
p312
aS'egotist'
p313
aS'envirotard'
p314
aS'eunuch'
p315
aS'evildoer'
p316
aS'fag'
p317
aS'faggot'
p318
aS'fagtard'
p319
aS'fagtits'
p320
aS'failed abortion'
p321
aS'failure'
p322
aS'fake'
p323
aS'faker'
p324
aS'fanny'
p325
aS'farmer'
p326
aS'fart'
p327
aS'fartface'
p328
aS'fart hole'
p329
aS'fartknocker'
p330
aS'fartman'
p331
aS'fart smeller'
p332
aS'fart sucker'
p333
aS'fascist'
p334
aS'fatass'
p335
aS'fatfuck'
p336
aS'fat geezer'
p337
aS'fatherfucker'
p338
aS'fatso'
p339
aS'fat-tard'
p340
aS'fatty'
p341
aS'fedex-faggot'
p342
aS'fedex-faker'
p343
aS'fedex-fucker'
p344
aS'fellow'
p345
aS'fembot'
p346
aS'fetus'
p347
aS'fibber'
p348
aS'fink'
p349
aS'first time skier'
p350
aS'fish'
p351
aS'fish fucker'
p352
aS'fishwife'
p353
aS'fixer'
p354
aS'flag fucker'
p355
aS'flake'
p356
aS'flat-earther'
p357
aS'fleabag'
p358
aS'flip-flopper'
p359
aS'fool'
p360
aS'foreskin ripper'
p361
aS'foul mouth'
p362
aS'four eyes'
p363
aS'fraggle'
p364
aS'frat-boy bitch'
p365
aS'freak'
p366
aS'freaky lips'
p367
aS'fruitcake'
p368
aS'frump'
p369
aS'fuck'
p370
aS'fuckass'
p371
aS'fuckbait'
p372
aS'fuckbucket'
p373
aS'fucker'
p374
aS'fuckface'
p375
aS'fuckhead'
p376
aS'fucking bitch'
p377
aS'fucklord'
p378
aS'fuck noggin'
p379
aS'fucknose'
p380
aS'fucknozzle'
p381
aS'fuck nugget'
p382
aS'fuckrod'
p383
aS'fuckshit'
p384
aS'fuckskull'
p385
aS'fuckstain'
p386
aS'fuckster'
p387
aS'fucktard'
p388
aS'fucktoy'
p389
aS'fuckweasel'
p390
aS'fuckwhistle'
p391
aS'fuckwit'
p392
aS'fudge packer'
p393
aS'fugly'
p394
aS'funpire'
p395
aS'furry'
p396
aS'gangster'
p397
aS'gaper'
p398
aS'garbage'
p399
aS'gawk'
p400
aS'gaytard'
p401
aS'gaywad'
p402
aS'geebag'
p403
aS'geek'
p404
aS'gimp'
p405
aS'ginger'
p406
aS'git'
p407
aS'goblin'
p408
aS'gobshite'
p409
aS'gold digger'
p410
aS'goof'
p411
aS'goon'
p412
aS'goontard'
p413
aS'goose'
p414
aS'gorilla'
p415
aS'grandmotherfucker'
p416
aS'gravy face'
p417
aS'greeniac'
p418
aS'grinch'
p419
aS'grouch'
p420
aS'grumpy'
p421
aS'handfucker'
p422
aS'headass'
p423
aS'helldog'
p424
aS'hikikomori'
p425
aS'hilding'
p426
aS'hillbilly'
p427
aS'hippie'
p428
aS'ho'
p429
aS'hoarder'
p430
aS'hobbledehoy'
p431
aS'hobo'
p432
aS'hoe'
p433
aS'hog'
p434
aS'homo'
p435
aS'hoodie'
p436
aS'hoodlum'
p437
aS'hooligan'
p438
aS'hooplehead'
p439
aS'Hornswaggler'
p440
aS'horsefucker'
p441
aS"horse's ass"
p442
aS"horse's necktie"
p443
aS'hosebag'
p444
aS'hussy'
p445
aS'hypocrite'
p446
aS'idiot'
p447
aS'idiotist'
p448
aS'idiot sandwich'
p449
aS'idleton'
p450
aS'ignoramus'
p451
aS'imbecile'
p452
aS'inbred'
p453
aS'inbreeder'
p454
aS'incel'
p455
aS'intercourser'
p456
aS'jabroni'
p457
aS'jackass'
p458
aS'jackhole'
p459
aS'jackwagon'
p460
aS'jagweed'
p461
aS'jamoke'
p462
aS'jelly'
p463
aS'jerk'
p464
aS'jerkoff'
p465
aS'jerkwad'
p466
aS'jit stain'
p467
aS'jizz guzzler'
p468
aS'jizzwizard'
p469
aS'joker'
p470
aS'jokes'
p471
aS'jumpoff'
p472
aS'junkie'
p473
aS'Karen'
p474
aS'Kevin'
p475
aS'kevun'
p476
aS'keyboard warrior'
p477
aS'kidfucker'
p478
aS'klutz'
p479
aS'knacker'
p480
aS'knuckle dragger'
p481
aS'lady of the evening'
p482
aS'lamebrain'
p483
aS'landwhale'
p484
aS'langer'
p485
aS'lard'
p486
aS'lard face'
p487
aS'liar'
p488
aS'libtard'
p489
aS'lickspittle'
p490
aS'loafer'
p491
aS'lobotomite'
p492
aS'lodge rat'
p493
aS'loser'
p494
aS'loudmouth'
p495
aS'louse'
p496
aS'low-life'
p497
aS'lummox'
p498
aS'lunatic'
p499
aS'lunkhead'
p500
aS'lurdane'
p501
aS'lush'
p502
aS'mackerel'
p503
aS'madman'
p504
aS'maggot'
p505
aS'mamzer'
p506
aS'maniac'
p507
aS'man-whore'
p508
aS'meanie'
p509
aS'megabitch'
p510
aS'megadouche'
p511
aS'mental midget'
p512
aS'midget'
p513
aS'milf'
p514
aS'milksop'
p515
aS'mime'
p516
aS'Mingie'
p517
aS'minx'
p518
aS'missing link'
p519
aS'mistake'
p520
aS'mobster'
p521
aS'mofo'
p522
aS'Mohambie'
p523
aS'mongoose'
p524
aS'mongrel'
p525
aS'monkey'
p526
aS'monkeyface'
p527
aS'monkeyspank'
p528
aS'monster'
p529
aS'mooncalf'
p530
aS'moron'
p531
aS'motherfucker'
p532
aS'mousefucker'
p533
aS'mouth breather'
p534
aS'Mr. Anger'
p535
aS'Mr. Obsessed'
p536
aS'Mrs. Quack-Quack'
p537
aS'Mr. Struggle'
p538
aS'Mr. Talk'
p539
aS'mucky pup'
p540
aS'mule'
p541
aS'mumpsimus'
p542
aS'mung'
p543
aS'muppet'
p544
aS'mutant'
p545
aS'mutt'
p546
aS'nark'
p547
aS'nasty pants'
p548
aS'naysayer'
p549
aS'nazi'
p550
aS'neanderthal'
p551
aS'Nebbish'
p552
aS'neckbeard'
p553
aS'necrophiliac'
p554
aS"ne'er-do-well"
p555
aS'nephew fucker'
p556
aS'nerd'
p557
aS'nerf herder'
p558
aS'niece fucker'
p559
aS'nimrod'
p560
aS'nincompoop'
p561
aS'ninny'
p562
aS'ninnyhammer'
p563
aS'nitwit'
p564
aS'nobody'
p565
aS'non'
p566
aS'nonce'
p567
aS'noob'
p568
aS'noodle'
p569
aS'numbnuts'
p570
aS'numbskull'
p571
aS'numpty'
p572
aS'numskull'
p573
aS'nut'
p574
aS'nutjob'
p575
aS'oaf'
p576
aS'oddball'
p577
aS'offender'
p578
aS'ogre'
p579
aS'oompa loompa'
p580
aS'orphan'
p581
aS'outcast'
p582
aS'outlaw'
p583
aS'oxygen thief'
p584
aS'pack'
p585
aS'packrat'
p586
aS'pain in the ass'
p587
aS'panini head'
p588
aS'pansy'
p589
aS'pariah'
p590
aS'party pooper'
p591
aS'peasant'
p592
aS'pedophile'
p593
aS'peehole'
p594
aS'penchod'
p595
aS'pencil dick'
p596
aS'penis face'
p597
aS'Penis licker'
p598
aS'penispuffer'
p599
aS'penis sucker'
p600
aS'perv'
p601
aS'pervert'
p602
aS'pickpocket'
p603
aS'piece of crap'
p604
aS'piece of garbage'
p605
aS'piece of junk'
p606
aS'piece of shit'
p607
aS'piece of trash'
p608
aS'pig'
p609
aS'pigfucker'
p610
aS'piggy-wiggy'
p611
aS'pig slop'
p612
aS'pikspiller'
p613
aS'pillock'
p614
aS'pimp'
p615
aS'pinhead'
p616
aS'pirate'
p617
aS'pissbaby'
p618
aS'pissbrain'
p619
aS'pissbreath'
p620
aS'pissface'
p621
aS'piss gulper'
p622
aS'pisshead'
p623
aS'piss monkey'
p624
aS'pisspot'
p625
aS'Pissy bitch'
p626
aS'pleb'
p627
aS'plonker'
p628
aS'pooface'
p629
aS'poohead'
p630
aS'pooper'
p631
aS'poopface'
p632
aS'poop hole'
p633
aS'pooplicker'
p634
aS'poopy head'
p635
aS'poopy pants'
p636
aS'poor'
p637
aS'porno freak'
p638
aS'porn star'
p639
aS'potato'
p640
aS'pothead'
p641
aS'potty head'
p642
aS'prick'
p643
aS'prickface'
p644
aS'primadonna'
p645
aS'prom night dumpster baby'
p646
aS'pseudo-intellectual'
p647
aS'psycho'
p648
aS'pube flosser'
p649
aS'pudwhacker'
p650
aS'puke bag'
p651
aS'pukeball'
p652
aS'pulp gulper'
p653
aS'punk'
p654
aS'punkass'
p655
aS'puppet'
p656
aS'pus licker'
p657
aS'pussy'
p658
aS'pussyboy'
p659
aS'pussyfucker'
p660
aS'pussy pisser'
p661
aS'pyramidiot'
p662
aS'quack'
p663
aS'quat'
p664
aS'queef cookie'
p665
aS'queer bait'
p666
aS'querulant'
p667
aS'quitter'
p668
aS'raasclaat'
p669
aS'rabbitfucker'
p670
aS'Ranga'
p671
aS'rat'
p672
aS'ratcatcher'
p673
aS'ratfink'
p674
aS'ratfucker'
p675
aS'redditor'
p676
aS'redneck'
p677
aS'reject'
p678
aS'retard'
p679
aS'riff-raff'
p680
aS'riot'
p681
aS'roaster'
p682
aS'robot'
p683
aS'rowdy'
p684
aS'rudesby'
p685
aS'ruffian'
p686
aS'Rumple-Foreskin'
p687
aS'runt'
p688
aS'sadist'
p689
aS'saggy fuck'
p690
aS'saprophyte'
p691
aS'sausage-masseuse'
p692
aS'scaredy-cat'
p693
aS'schlub'
p694
aS'scobberlotcher'
p695
aS'scoozie'
p696
aS'scoundrel'
p697
aS'screw up'
p698
aS'scrote'
p699
aS'scrotum licker'
p700
aS'scrotum-sucker'
p701
aS'scum'
p702
aS'scumbag'
p703
aS'scumbreath'
p704
aS'scumbutt'
p705
aS'scumface'
p706
aS'scumfuck'
p707
aS'scumhead'
p708
aS'scumlord'
p709
aS'scumwad'
p710
aS'scuzzbag'
p711
aS'serf'
p712
aS'sewer rat'
p713
aS'sex maniac'
p714
aS'shark'
p715
aS'sharmuta'
p716
aS'sheepfucker'
p717
aS'sheepshagger'
p718
aS'shemale'
p719
aS'shill'
p720
aS'shitass'
p721
aS'shitbag'
p722
aS'shitball'
p723
aS'shitbird'
p724
aS'shitbrain'
p725
aS'shitbreath'
p726
aS'shitbucket'
p727
aS'shitbum'
p728
aS'shitcunt'
p729
aS'shitdick'
p730
aS'shit-eater'
p731
aS'shitehawk'
p732
aS'shitface'
p733
aS'shit-for-brains'
p734
aS'shitfuck'
p735
aS'shitfucker'
p736
aS'shitgoblin'
p737
aS'shithead'
p738
aS'shitizen'
p739
aS'shitlord'
p740
aS'shitneck'
p741
aS'shitnugget'
p742
aS'shitpicker'
p743
aS'shitpiss'
p744
aS'shitpot'
p745
aS'shitpuddle'
p746
aS'shitsack'
p747
aS'shit stain'
p748
aS'shitter'
p749
aS'shitweasel'
p750
aS'shmekl'
p751
aS'shrew'
p752
aS'shyster'
p753
aS'sibling fucker'
p754
aS'simp'
p755
aS'simpleton'
p756
aS'sissy'
p757
aS'sisterfucker'
p758
aS'sister humper'
p759
aS'skank'
p760
aS'sket'
p761
aS'skite'
p762
aS'skullfucker'
p763
aS'skunk'
p764
aS'skunkfucker'
p765
aS'slacker'
p766
aS'slag'
p767
aS'slaphead'
p768
aS'slave'
p769
aS'sleazewad'
p770
aS'sleeze'
p771
aS'sleeze bag'
p772
aS'slimeface'
p773
aS'slob'
p774
aS'slut'
p775
aS'slutbag'
p776
aS'slutfucker'
p777
aS'sluthead'
p778
aS'smell-feast'
p779
aS'smellfungus'
p780
aS'snail'
p781
aS'snake'
p782
aS'sneakerhead'
p783
aS'snob'
p784
aS'snollygoster'
p785
aS'snot'
p786
aS'snotball'
p787
aS'snotface'
p788
aS'snothead'
p789
aS'snotwad'
p790
aS'snowflake'
p791
aS'son of a bitch'
p792
aS'son of a motherless goat'
p793
aS'son of a whore'
p794
aS'sow'
p795
aS'soy boy'
p796
aS'spack'
p797
aS'spammer'
p798
aS'sped'
p799
aS'sphincter'
p800
aS'splenetic'
p801
aS'square'
p802
aS'squid brain'
p803
aS'stick in the mud'
p804
aS'stink cunt'
p805
aS'stinker'
p806
aS'stinkhole'
p807
aS'Stinky McPoopPants'
p808
aS'straggot'
p809
aS'strawberry'
p810
aS'stupid'
p811
aS'stupidhead'
p812
aS'sucker'
p813
aS'swindler'
p814
aS'swine'
p815
aS'sycophant'
p816
aS'taco sandwich'
p817
aS'tard'
p818
aS'terrorist'
p819
aS'thief'
p820
aS'thot'
p821
aS'thotpocket'
p822
aS'threat'
p823
aS'throat-slitter'
p824
aS'thundercunt'
p825
aS'Tit'
p826
aS'titbag'
p827
aS'titty sprinkles'
p828
aS'toad'
p829
aS'toady'
p830
aS'toe eyed cabbage'
p831
aS'toilet baby'
p832
aS'tomato'
p833
aS'tool'
p834
aS'trailer trash'
p835
aS'traitor'
p836
aS'Tramp'
p837
aS'tranny'
p838
aS'trash'
p839
aS'tree hugger'
p840
aS'troglodyte'
p841
aS'troll'
p842
aS'trollface'
p843
aS'trolltard'
p844
aS'troublemaker'
p845
aS'tub of lard'
p846
aS'turd'
p847
aS'turdball'
p848
aS'turdbucket'
p849
aS'turd burger'
p850
aS'turd burglar'
p851
aS'turd cutter'
p852
aS'turd hound'
p853
aS'turdpile'
p854
aS'twat'
p855
aS'twattock'
p856
aS'twatwaffle'
p857
aS'twerp'
p858
aS'twit'
p859
aS'twitter feminist'
p860
aS'twunt'
p861
aS'unclefucker'
p862
aS'unseasoned cabage'
p863
aS'vagina cleaner'
p864
aS'vampire'
p865
aS'vandal'
p866
aS'vantz'
p867
aS'varmint'
p868
aS'vaxhole'
p869
aS'vermin'
p870
aS'vine-sucker'
p871
aS'vonce'
p872
aS'wacko'
p873
aS'wallflower'
p874
aS'wally'
p875
aS'wanker'
p876
aS'wank stain'
p877
aS'waste'
p878
aS'waste of oxygen'
p879
aS'wazzock'
p880
aS'weakling'
p881
aS'weeze bag'
p882
aS'weirdo'
p883
aS'whiner'
p884
aS'whore'
p885
aS'whore bag'
p886
aS'whorefucker'
p887
aS"whore's-bird"
p888
aS'whoreson'
p889
aS'wimp'
p890
aS'windfucker'
p891
aS'window licker'
p892
aS'windsucker'
p893
aS'wino'
p894
aS'witch'
p895
aS'woketard'
p896
aS'womanizer'
p897
aS'wommy'
p898
aS'worm'
p899
aS'wretch'
p900
aS'wrongdoer'
p901
aS'wuss'
p902
aS'xenophobe'
p903
aS'yahoo'
p904
aS'yes-man'
p905
aS'yeti'
p906
aS'yiffer'
p907
aS'yonker'
p908
aS'yo-yo'
p909
aS'yuck'
p910
aS'yutz'
p911
aS'zebrafucker'
p912
aS'zitface'
p913
aS'zoophile'
p914
aS'zounderkite'
p915
a.